target datalayout = "e-m:e-p270:32:32-p271:32:32-p272:64:64-i64:64-i128:128-f80:128-n8:16:32:64-S128"
target triple = "x86_64-pc-linux-gnu"

; Function Attrs: nounwind uwtable
define internal i32 @unicode_from_raw(i8 noundef zeroext %0) #0 {
  %2 = alloca i8, align 1
  store i8 %0, ptr %2, align 1, !tbaa !13
  %3 = load i8, ptr %2, align 1, !tbaa !13
  %4 = zext i8 %3 to i32
  %5 = add i32 974848, %4
  ret i32 %5
}

; Function Attrs: nounwind uwtable
define internal zeroext i1 @utf8_is_cont(i8 noundef zeroext %0) #0 {
  %2 = alloca i8, align 1
  store i8 %0, ptr %2, align 1, !tbaa !13
  %3 = load i8, ptr %2, align 1, !tbaa !13
  %4 = zext i8 %3 to i32
  %5 = and i32 %4, 192
  %6 = icmp eq i32 %5, 128
  ret i1 %6
}

; Function Attrs: nounwind uwtable
define internal i32 @unicode_from_qutf8(ptr noundef %0, i64 noundef %1, ptr noundef %2) #0 {
  %4 = alloca i32, align 4
  %5 = alloca ptr, align 8
  %6 = alloca i64, align 8
  %7 = alloca ptr, align 8
  %8 = alloca i32, align 4
  %9 = alloca i32, align 4
  store ptr %0, ptr %5, align 8, !tbaa !11
  store i64 %1, ptr %6, align 8, !tbaa !9
  store ptr %2, ptr %7, align 8, !tbaa !62
  call void @llvm.lifetime.start.p0(i64 4, ptr %8) #13
  store i32 0, ptr %8, align 4, !tbaa !115
  %10 = load i64, ptr %6, align 8, !tbaa !9
  %11 = icmp sle i64 %10, 0
  br i1 %11, label %15, label %12

12:                                               ; preds = %3
  %13 = load ptr, ptr %5, align 8, !tbaa !11
  %14 = icmp eq ptr %13, null
  br i1 %14, label %15, label %16

15:                                               ; preds = %12, %3
  br label %232

16:                                               ; preds = %12
  %17 = load ptr, ptr %5, align 8, !tbaa !11
  %18 = getelementptr inbounds i8, ptr %17, i64 0
  %19 = load i8, ptr %18, align 1, !tbaa !13
  %20 = zext i8 %19 to i32
  store i32 %20, ptr %8, align 4, !tbaa !115
  %21 = load i32, ptr %8, align 4, !tbaa !115
  %22 = icmp ule i32 %21, 127
  br i1 %22, label %23, label %33

23:                                               ; preds = %16
  %24 = load i64, ptr %6, align 8, !tbaa !9
  %25 = icmp sge i64 %24, 1
  br i1 %25, label %26, label %33

26:                                               ; preds = %23
  %27 = load ptr, ptr %7, align 8, !tbaa !62
  %28 = icmp ne ptr %27, null
  br i1 %28, label %29, label %31

29:                                               ; preds = %26
  %30 = load ptr, ptr %7, align 8, !tbaa !62
  store i64 1, ptr %30, align 8, !tbaa !9
  br label %31

31:                                               ; preds = %29, %26
  %32 = load i32, ptr %8, align 4, !tbaa !115
  store i32 %32, ptr %4, align 4
  store i32 1, ptr %9, align 4
  br label %242

33:                                               ; preds = %23, %16
  %34 = load i32, ptr %8, align 4, !tbaa !115
  %35 = icmp ule i32 %34, 193
  br i1 %35, label %36, label %37

36:                                               ; preds = %33
  br label %232

37:                                               ; preds = %33
  %38 = load i32, ptr %8, align 4, !tbaa !115
  %39 = icmp ule i32 %38, 223
  br i1 %39, label %40, label %63

40:                                               ; preds = %37
  %41 = load i64, ptr %6, align 8, !tbaa !9
  %42 = icmp sge i64 %41, 2
  br i1 %42, label %43, label %63

43:                                               ; preds = %40
  %44 = load ptr, ptr %5, align 8, !tbaa !11
  %45 = getelementptr inbounds i8, ptr %44, i64 1
  %46 = load i8, ptr %45, align 1, !tbaa !13
  %47 = call zeroext i1 @utf8_is_cont(i8 noundef zeroext %46)
  br i1 %47, label %48, label %63

48:                                               ; preds = %43
  %49 = load ptr, ptr %7, align 8, !tbaa !62
  %50 = icmp ne ptr %49, null
  br i1 %50, label %51, label %53

51:                                               ; preds = %48
  %52 = load ptr, ptr %7, align 8, !tbaa !62
  store i64 2, ptr %52, align 8, !tbaa !9
  br label %53

53:                                               ; preds = %51, %48
  %54 = load i32, ptr %8, align 4, !tbaa !115
  %55 = and i32 %54, 31
  %56 = shl i32 %55, 6
  %57 = load ptr, ptr %5, align 8, !tbaa !11
  %58 = getelementptr inbounds i8, ptr %57, i64 1
  %59 = load i8, ptr %58, align 1, !tbaa !13
  %60 = zext i8 %59 to i32
  %61 = and i32 %60, 63
  %62 = or i32 %56, %61
  store i32 %62, ptr %4, align 4
  store i32 1, ptr %9, align 4
  br label %242

63:                                               ; preds = %43, %40, %37
  %64 = load i64, ptr %6, align 8, !tbaa !9
  %65 = icmp sge i64 %64, 3
  br i1 %65, label %66, label %124

66:                                               ; preds = %63
  %67 = load i32, ptr %8, align 4, !tbaa !115
  %68 = icmp eq i32 %67, 224
  br i1 %68, label %69, label %86

69:                                               ; preds = %66
  %70 = load ptr, ptr %5, align 8, !tbaa !11
  %71 = getelementptr inbounds i8, ptr %70, i64 1
  %72 = load i8, ptr %71, align 1, !tbaa !13
  %73 = zext i8 %72 to i32
  %74 = icmp sge i32 %73, 160
  br i1 %74, label %75, label %86

75:                                               ; preds = %69
  %76 = load ptr, ptr %5, align 8, !tbaa !11
  %77 = getelementptr inbounds i8, ptr %76, i64 1
  %78 = load i8, ptr %77, align 1, !tbaa !13
  %79 = zext i8 %78 to i32
  %80 = icmp sle i32 %79, 191
  br i1 %80, label %81, label %86

81:                                               ; preds = %75
  %82 = load ptr, ptr %5, align 8, !tbaa !11
  %83 = getelementptr inbounds i8, ptr %82, i64 2
  %84 = load i8, ptr %83, align 1, !tbaa !13
  %85 = call zeroext i1 @utf8_is_cont(i8 noundef zeroext %84)
  br i1 %85, label %102, label %86

86:                                               ; preds = %81, %75, %69, %66
  %87 = load i32, ptr %8, align 4, !tbaa !115
  %88 = icmp uge i32 %87, 225
  br i1 %88, label %89, label %124

89:                                               ; preds = %86
  %90 = load i32, ptr %8, align 4, !tbaa !115
  %91 = icmp ule i32 %90, 236
  br i1 %91, label %92, label %124

92:                                               ; preds = %89
  %93 = load ptr, ptr %5, align 8, !tbaa !11
  %94 = getelementptr inbounds i8, ptr %93, i64 1
  %95 = load i8, ptr %94, align 1, !tbaa !13
  %96 = call zeroext i1 @utf8_is_cont(i8 noundef zeroext %95)
  br i1 %96, label %97, label %124

97:                                               ; preds = %92
  %98 = load ptr, ptr %5, align 8, !tbaa !11
  %99 = getelementptr inbounds i8, ptr %98, i64 2
  %100 = load i8, ptr %99, align 1, !tbaa !13
  %101 = call zeroext i1 @utf8_is_cont(i8 noundef zeroext %100)
  br i1 %101, label %102, label %124

102:                                              ; preds = %97, %81
  %103 = load ptr, ptr %7, align 8, !tbaa !62
  %104 = icmp ne ptr %103, null
  br i1 %104, label %105, label %107

105:                                              ; preds = %102
  %106 = load ptr, ptr %7, align 8, !tbaa !62
  store i64 3, ptr %106, align 8, !tbaa !9
  br label %107

107:                                              ; preds = %105, %102
  %108 = load i32, ptr %8, align 4, !tbaa !115
  %109 = and i32 %108, 15
  %110 = shl i32 %109, 12
  %111 = load ptr, ptr %5, align 8, !tbaa !11
  %112 = getelementptr inbounds i8, ptr %111, i64 1
  %113 = load i8, ptr %112, align 1, !tbaa !13
  %114 = zext i8 %113 to i32
  %115 = and i32 %114, 63
  %116 = shl i32 %115, 6
  %117 = or i32 %110, %116
  %118 = load ptr, ptr %5, align 8, !tbaa !11
  %119 = getelementptr inbounds i8, ptr %118, i64 2
  %120 = load i8, ptr %119, align 1, !tbaa !13
  %121 = zext i8 %120 to i32
  %122 = and i32 %121, 63
  %123 = or i32 %117, %122
  store i32 %123, ptr %4, align 4
  store i32 1, ptr %9, align 4
  br label %242

124:                                              ; preds = %97, %92, %89, %86, %63
  %125 = load i64, ptr %6, align 8, !tbaa !9
  %126 = icmp sge i64 %125, 4
  br i1 %126, label %127, label %227

127:                                              ; preds = %124
  %128 = load i32, ptr %8, align 4, !tbaa !115
  %129 = icmp eq i32 %128, 240
  br i1 %129, label %130, label %152

130:                                              ; preds = %127
  %131 = load ptr, ptr %5, align 8, !tbaa !11
  %132 = getelementptr inbounds i8, ptr %131, i64 1
  %133 = load i8, ptr %132, align 1, !tbaa !13
  %134 = zext i8 %133 to i32
  %135 = icmp sge i32 %134, 144
  br i1 %135, label %136, label %152

136:                                              ; preds = %130
  %137 = load ptr, ptr %5, align 8, !tbaa !11
  %138 = getelementptr inbounds i8, ptr %137, i64 1
  %139 = load i8, ptr %138, align 1, !tbaa !13
  %140 = zext i8 %139 to i32
  %141 = icmp sle i32 %140, 191
  br i1 %141, label %142, label %152

142:                                              ; preds = %136
  %143 = load ptr, ptr %5, align 8, !tbaa !11
  %144 = getelementptr inbounds i8, ptr %143, i64 2
  %145 = load i8, ptr %144, align 1, !tbaa !13
  %146 = call zeroext i1 @utf8_is_cont(i8 noundef zeroext %145)
  br i1 %146, label %147, label %152

147:                                              ; preds = %142
  %148 = load ptr, ptr %5, align 8, !tbaa !11
  %149 = getelementptr inbounds i8, ptr %148, i64 3
  %150 = load i8, ptr %149, align 1, !tbaa !13
  %151 = call zeroext i1 @utf8_is_cont(i8 noundef zeroext %150)
  br i1 %151, label %198, label %152

152:                                              ; preds = %147, %142, %136, %130, %127
  %153 = load i32, ptr %8, align 4, !tbaa !115
  %154 = icmp uge i32 %153, 241
  br i1 %154, label %155, label %173

155:                                              ; preds = %152
  %156 = load i32, ptr %8, align 4, !tbaa !115
  %157 = icmp ule i32 %156, 243
  br i1 %157, label %158, label %173

158:                                              ; preds = %155
  %159 = load ptr, ptr %5, align 8, !tbaa !11
  %160 = getelementptr inbounds i8, ptr %159, i64 1
  %161 = load i8, ptr %160, align 1, !tbaa !13
  %162 = call zeroext i1 @utf8_is_cont(i8 noundef zeroext %161)
  br i1 %162, label %163, label %173

163:                                              ; preds = %158
  %164 = load ptr, ptr %5, align 8, !tbaa !11
  %165 = getelementptr inbounds i8, ptr %164, i64 2
  %166 = load i8, ptr %165, align 1, !tbaa !13
  %167 = call zeroext i1 @utf8_is_cont(i8 noundef zeroext %166)
  br i1 %167, label %168, label %173

168:                                              ; preds = %163
  %169 = load ptr, ptr %5, align 8, !tbaa !11
  %170 = getelementptr inbounds i8, ptr %169, i64 3
  %171 = load i8, ptr %170, align 1, !tbaa !13
  %172 = call zeroext i1 @utf8_is_cont(i8 noundef zeroext %171)
  br i1 %172, label %198, label %173

173:                                              ; preds = %168, %163, %158, %155, %152
  %174 = load i32, ptr %8, align 4, !tbaa !115
  %175 = icmp eq i32 %174, 244
  br i1 %175, label %176, label %227

176:                                              ; preds = %173
  %177 = load ptr, ptr %5, align 8, !tbaa !11
  %178 = getelementptr inbounds i8, ptr %177, i64 1
  %179 = load i8, ptr %178, align 1, !tbaa !13
  %180 = zext i8 %179 to i32
  %181 = icmp sge i32 %180, 128
  br i1 %181, label %182, label %227

182:                                              ; preds = %176
  %183 = load ptr, ptr %5, align 8, !tbaa !11
  %184 = getelementptr inbounds i8, ptr %183, i64 1
  %185 = load i8, ptr %184, align 1, !tbaa !13
  %186 = zext i8 %185 to i32
  %187 = icmp sle i32 %186, 143
  br i1 %187, label %188, label %227

188:                                              ; preds = %182
  %189 = load ptr, ptr %5, align 8, !tbaa !11
  %190 = getelementptr inbounds i8, ptr %189, i64 2
  %191 = load i8, ptr %190, align 1, !tbaa !13
  %192 = call zeroext i1 @utf8_is_cont(i8 noundef zeroext %191)
  br i1 %192, label %193, label %227

193:                                              ; preds = %188
  %194 = load ptr, ptr %5, align 8, !tbaa !11
  %195 = getelementptr inbounds i8, ptr %194, i64 3
  %196 = load i8, ptr %195, align 1, !tbaa !13
  %197 = call zeroext i1 @utf8_is_cont(i8 noundef zeroext %196)
  br i1 %197, label %198, label %227

198:                                              ; preds = %193, %168, %147
  %199 = load ptr, ptr %7, align 8, !tbaa !62
  %200 = icmp ne ptr %199, null
  br i1 %200, label %201, label %203

201:                                              ; preds = %198
  %202 = load ptr, ptr %7, align 8, !tbaa !62
  store i64 4, ptr %202, align 8, !tbaa !9
  br label %203

203:                                              ; preds = %201, %198
  %204 = load i32, ptr %8, align 4, !tbaa !115
  %205 = and i32 %204, 7
  %206 = shl i32 %205, 18
  %207 = load ptr, ptr %5, align 8, !tbaa !11
  %208 = getelementptr inbounds i8, ptr %207, i64 1
  %209 = load i8, ptr %208, align 1, !tbaa !13
  %210 = zext i8 %209 to i32
  %211 = and i32 %210, 63
  %212 = shl i32 %211, 12
  %213 = or i32 %206, %212
  %214 = load ptr, ptr %5, align 8, !tbaa !11
  %215 = getelementptr inbounds i8, ptr %214, i64 2
  %216 = load i8, ptr %215, align 1, !tbaa !13
  %217 = zext i8 %216 to i32
  %218 = and i32 %217, 63
  %219 = shl i32 %218, 6
  %220 = or i32 %213, %219
  %221 = load ptr, ptr %5, align 8, !tbaa !11
  %222 = getelementptr inbounds i8, ptr %221, i64 3
  %223 = load i8, ptr %222, align 1, !tbaa !13
  %224 = zext i8 %223 to i32
  %225 = and i32 %224, 63
  %226 = or i32 %220, %225
  store i32 %226, ptr %4, align 4
  store i32 1, ptr %9, align 4
  br label %242

227:                                              ; preds = %193, %188, %182, %176, %173, %124
  br label %228

228:                                              ; preds = %227
  br label %229

229:                                              ; preds = %228
  br label %230

230:                                              ; preds = %229
  br label %231

231:                                              ; preds = %230
  br label %232

232:                                              ; preds = %231, %36, %15
  %233 = load ptr, ptr %7, align 8, !tbaa !62
  %234 = icmp ne ptr %233, null
  br i1 %234, label %235, label %237

235:                                              ; preds = %232
  %236 = load ptr, ptr %7, align 8, !tbaa !62
  store i64 1, ptr %236, align 8, !tbaa !9
  br label %237

237:                                              ; preds = %235, %232
  %238 = load ptr, ptr %5, align 8, !tbaa !11
  %239 = getelementptr inbounds i8, ptr %238, i64 0
  %240 = load i8, ptr %239, align 1, !tbaa !13
  %241 = call i32 @unicode_from_raw(i8 noundef zeroext %240)
  store i32 %241, ptr %4, align 4
  store i32 1, ptr %9, align 4
  br label %242

242:                                              ; preds = %237, %203, %107, %53, %31
  call void @llvm.lifetime.end.p0(i64 4, ptr %8) #13
  %243 = load i32, ptr %4, align 4
  ret i32 %243
}