; Function Attrs: mustprogress nofree norecurse nosync nounwind willreturn memory(argmem: readwrite) uwtable
define internal fastcc range(i32 0, 2097152) i32 @unicode_from_qutf8(ptr noundef readonly %0, i64 noundef range(i64 1, -9223372036854775808) %1, ptr noundef nonnull writeonly captures(none) initializes((0, 8)) %2) unnamed_addr #8 {
  %4 = icmp eq ptr %0, null
  br i1 %4, label %.thread75, label %5

5:                                                ; preds = %3
  %6 = load i8, ptr %0, align 1, !tbaa !4
  %7 = zext i8 %6 to i32
  %8 = icmp sgt i8 %6, -1
  br i1 %8, label %9, label %10

9:                                                ; preds = %5
  store i64 1, ptr %2, align 8, !tbaa !57
  br label %127

10:                                               ; preds = %5
  %11 = icmp samesign ult i8 %6, -62
  br i1 %11, label %.thread75, label %12

12:                                               ; preds = %10
  %13 = icmp samesign ult i8 %6, -32
  %14 = icmp samesign ugt i64 %1, 1
  %or.cond5 = select i1 %13, i1 %14, i1 false
  br i1 %or.cond5, label %15, label %26

15:                                               ; preds = %12
  %16 = getelementptr inbounds nuw i8, ptr %0, i64 1
  %17 = load i8, ptr %16, align 1, !tbaa !4
  %18 = icmp slt i8 %17, -64
  br i1 %18, label %19, label %26

19:                                               ; preds = %15
  store i64 2, ptr %2, align 8, !tbaa !57
  %20 = shl nuw nsw i32 %7, 6
  %21 = and i32 %20, 1984
  %22 = load i8, ptr %16, align 1, !tbaa !4
  %23 = and i8 %22, 63
  %24 = zext nneg i8 %23 to i32
  %25 = or disjoint i32 %21, %24
  br label %127

26:                                               ; preds = %15, %12
  %27 = icmp samesign ugt i64 %1, 2
  br i1 %27, label %28, label %.thread75

28:                                               ; preds = %26
  %29 = icmp eq i8 %6, -32
  br i1 %29, label %30, label %38

30:                                               ; preds = %28
  %31 = getelementptr inbounds nuw i8, ptr %0, i64 1
  %32 = load i8, ptr %31, align 1, !tbaa !4
  %33 = and i8 %32, -32
  %or.cond = icmp eq i8 %33, -96
  br i1 %or.cond, label %34, label %.thread75

34:                                               ; preds = %30
  %35 = getelementptr inbounds nuw i8, ptr %0, i64 2
  %36 = load i8, ptr %35, align 1, !tbaa !4
  %37 = icmp slt i8 %36, -64
  br i1 %37, label %48, label %.thread75

38:                                               ; preds = %28
  %39 = add nsw i8 %6, 31
  %or.cond7 = icmp ult i8 %39, 12
  br i1 %or.cond7, label %40, label %62

40:                                               ; preds = %38
  %41 = getelementptr inbounds nuw i8, ptr %0, i64 1
  %42 = load i8, ptr %41, align 1, !tbaa !4
  %43 = icmp slt i8 %42, -64
  br i1 %43, label %44, label %62

44:                                               ; preds = %40
  %45 = getelementptr inbounds nuw i8, ptr %0, i64 2
  %46 = load i8, ptr %45, align 1, !tbaa !4
  %47 = icmp slt i8 %46, -64
  br i1 %47, label %48, label %62

48:                                               ; preds = %34, %44
  store i64 3, ptr %2, align 8, !tbaa !57
  %49 = shl nuw nsw i32 %7, 12
  %50 = and i32 %49, 61440
  %51 = getelementptr inbounds nuw i8, ptr %0, i64 1
  %52 = load i8, ptr %51, align 1, !tbaa !4
  %53 = and i8 %52, 63
  %54 = zext nneg i8 %53 to i32
  %55 = shl nuw nsw i32 %54, 6
  %56 = or disjoint i32 %55, %50
  %57 = getelementptr inbounds nuw i8, ptr %0, i64 2
  %58 = load i8, ptr %57, align 1, !tbaa !4
  %59 = and i8 %58, 63
  %60 = zext nneg i8 %59 to i32
  %61 = or disjoint i32 %56, %60
  br label %127

62:                                               ; preds = %44, %40, %38
  %.not = icmp eq i64 %1, 3
  br i1 %.not, label %.thread75, label %63

63:                                               ; preds = %62
  %64 = icmp eq i8 %6, -16
  br i1 %64, label %65, label %77

65:                                               ; preds = %63
  %66 = getelementptr inbounds nuw i8, ptr %0, i64 1
  %67 = load i8, ptr %66, align 1, !tbaa !4
  %68 = add i8 %67, 112
  %or.cond72 = icmp ult i8 %68, 48
  br i1 %or.cond72, label %69, label %.thread75

69:                                               ; preds = %65
  %70 = getelementptr inbounds nuw i8, ptr %0, i64 2
  %71 = load i8, ptr %70, align 1, !tbaa !4
  %72 = icmp slt i8 %71, -64
  br i1 %72, label %73, label %.thread75

73:                                               ; preds = %69
  %74 = getelementptr inbounds nuw i8, ptr %0, i64 3
  %75 = load i8, ptr %74, align 1, !tbaa !4
  %76 = icmp slt i8 %75, -64
  br i1 %76, label %104, label %.thread75

77:                                               ; preds = %63
  %78 = add nsw i8 %6, 15
  %or.cond9 = icmp ult i8 %78, 3
  br i1 %or.cond9, label %79, label %91

79:                                               ; preds = %77
  %80 = getelementptr inbounds nuw i8, ptr %0, i64 1
  %81 = load i8, ptr %80, align 1, !tbaa !4
  %82 = icmp slt i8 %81, -64
  br i1 %82, label %83, label %.thread75

83:                                               ; preds = %79
  %84 = getelementptr inbounds nuw i8, ptr %0, i64 2
  %85 = load i8, ptr %84, align 1, !tbaa !4
  %86 = icmp slt i8 %85, -64
  br i1 %86, label %87, label %.thread75

87:                                               ; preds = %83
  %88 = getelementptr inbounds nuw i8, ptr %0, i64 3
  %89 = load i8, ptr %88, align 1, !tbaa !4
  %90 = icmp slt i8 %89, -64
  br i1 %90, label %104, label %.thread75

91:                                               ; preds = %77
  %92 = icmp eq i8 %6, -12
  br i1 %92, label %93, label %.thread75

93:                                               ; preds = %91
  %94 = getelementptr inbounds nuw i8, ptr %0, i64 1
  %95 = load i8, ptr %94, align 1, !tbaa !4
  %or.cond73 = icmp slt i8 %95, -112
  br i1 %or.cond73, label %96, label %.thread75

96:                                               ; preds = %93
  %97 = getelementptr inbounds nuw i8, ptr %0, i64 2
  %98 = load i8, ptr %97, align 1, !tbaa !4
  %99 = icmp slt i8 %98, -64
  br i1 %99, label %100, label %.thread75

100:                                              ; preds = %96
  %101 = getelementptr inbounds nuw i8, ptr %0, i64 3
  %102 = load i8, ptr %101, align 1, !tbaa !4
  %103 = icmp slt i8 %102, -64
  br i1 %103, label %104, label %.thread75

104:                                              ; preds = %73, %87, %100
  store i64 4, ptr %2, align 8, !tbaa !57
  %105 = shl nuw nsw i32 %7, 18
  %106 = and i32 %105, 1835008
  %107 = getelementptr inbounds nuw i8, ptr %0, i64 1
  %108 = load i8, ptr %107, align 1, !tbaa !4
  %109 = and i8 %108, 63
  %110 = zext nneg i8 %109 to i32
  %111 = shl nuw nsw i32 %110, 12
  %112 = or disjoint i32 %111, %106
  %113 = getelementptr inbounds nuw i8, ptr %0, i64 2
  %114 = load i8, ptr %113, align 1, !tbaa !4
  %115 = and i8 %114, 63
  %116 = zext nneg i8 %115 to i32
  %117 = shl nuw nsw i32 %116, 6
  %118 = or disjoint i32 %112, %117
  %119 = getelementptr inbounds nuw i8, ptr %0, i64 3
  %120 = load i8, ptr %119, align 1, !tbaa !4
  %121 = and i8 %120, 63
  %122 = zext nneg i8 %121 to i32
  %123 = or disjoint i32 %118, %122
  br label %127

.thread75:                                        ; preds = %34, %30, %65, %69, %73, %79, %83, %87, %26, %3, %10, %100, %96, %93, %91, %62
  store i64 1, ptr %2, align 8, !tbaa !57
  %124 = load i8, ptr %0, align 1, !tbaa !4
  %125 = zext i8 %124 to i32
  %126 = or disjoint i32 %125, 974848
  br label %127

127:                                              ; preds = %.thread75, %104, %48, %19, %9
  %.0 = phi i32 [ %126, %.thread75 ], [ %7, %9 ], [ %25, %19 ], [ %61, %48 ], [ %123, %104 ]
  ret i32 %.0
}